; Function Attrs: mustprogress nofree norecurse nosync nounwind willreturn memory(read, argmem: write, inaccessiblemem: none) uwtable
define hidden void @_ZN27XRelocationSetSelectorGroupC2EPKchmm(ptr nocapture noundef nonnull writeonly align 8 dereferenceable(112) %0, ptr noundef %1, i8 noundef zeroext %2, i64 noundef %3, i64 noundef %4) unnamed_addr #1 align 2 {
  store ptr %1, ptr %0, align 8
  %6 = getelementptr inbounds i8, ptr %0, i64 8
  store i8 %2, ptr %6, align 8
  %7 = getelementptr inbounds i8, ptr %0, i64 16
  store i64 %3, ptr %7, align 8
  %8 = getelementptr inbounds i8, ptr %0, i64 24
  store i64 %4, ptr %8, align 8
  %9 = getelementptr inbounds i8, ptr %0, i64 32
  %10 = uitofp i64 %3 to double
  %11 = load double, ptr @ZFragmentationLimit, align 8
  %12 = fdiv double %11, 1.000000e+02
  %13 = fmul double %12, %10
  %14 = fptoui double %13 to i64
  store i64 %14, ptr %9, align 8
  %15 = getelementptr inbounds i8, ptr %0, i64 40
  tail call void @llvm.memset.p0.i64(ptr noundef nonnull align 8 dereferenceable(72) %15, i8 0, i64 72, i1 false)
  ret void
}